; Function Attrs: mustprogress uwtable
define noundef ptr @_ZN8LightGBM4GBDT16GetTrainingScoreEPl(ptr noundef nonnull readonly align 8 captures(none) dereferenceable(648) %0, ptr noundef writeonly captures(none) initializes((0, 8)) %1) unnamed_addr #1 align 2 {
  %3 = getelementptr inbounds nuw i8, ptr %0, i64 48
  %4 = load ptr, ptr %3, align 8, !tbaa !210
  %5 = getelementptr inbounds nuw i8, ptr %4, i64 8
  %6 = load i32, ptr %5, align 8, !tbaa !379
  %7 = sext i32 %6 to i64
  %8 = getelementptr inbounds nuw i8, ptr %0, i64 412
  %9 = load i32, ptr %8, align 4, !tbaa !158
  %10 = sext i32 %9 to i64
  %11 = mul nsw i64 %10, %7
  store i64 %11, ptr %1, align 8, !tbaa !223
  %12 = load ptr, ptr %4, align 8, !tbaa !193
  %13 = getelementptr inbounds nuw i8, ptr %12, i64 56
  %14 = load ptr, ptr %13, align 8
  %15 = tail call noundef ptr %14(ptr noundef nonnull align 8 dereferenceable(49) %4)
  ret ptr %15
}